; Function Attrs: nounwind uwtable
define ptr @l_Lean_Meta_Grind_Arith_CommRing_EqCnstr_setUnsat(ptr noundef %0, ptr noundef %1, ptr noundef %2, ptr noundef %3, ptr noundef %4, ptr noundef %5, ptr noundef %6, ptr noundef %7, ptr noundef %8, ptr noundef %9, ptr noundef %10) local_unnamed_addr #1 {
  %12 = tail call ptr @l_Lean_Meta_Grind_getConfig___rarg(ptr noundef %4, ptr noundef %5, ptr noundef %6, ptr noundef %7, ptr noundef %8, ptr noundef %9, ptr noundef %10) #6
  %13 = getelementptr inbounds nuw i8, ptr %12, i64 8
  %14 = load ptr, ptr %13, align 8, !tbaa !11
  %15 = ptrtoint ptr %14 to i64
  %16 = and i64 %15, 1
  %.not = icmp eq i64 %16, 0
  br i1 %.not, label %17, label %lean_inc.exit43

17:                                               ; preds = %11
  %.val.i = load i32, ptr %14, align 4, !tbaa !6
  %18 = icmp sgt i32 %.val.i, 0
  br i1 %18, label %19, label %21, !prof !5

19:                                               ; preds = %17
  %20 = add nuw i32 %.val.i, 1
  store i32 %20, ptr %14, align 4, !tbaa !6
  br label %25

21:                                               ; preds = %17
  %.not.i50 = icmp eq i32 %.val.i, 0
  br i1 %.not.i50, label %.thread63, label %23

.thread63:                                        ; preds = %21
  %22 = getelementptr i8, ptr %14, i64 82
  %.val5760 = load i8, ptr %22, align 1, !tbaa !22
  br label %lean_dec.exit45

23:                                               ; preds = %21
  tail call void @lean_inc_ref_cold(ptr noundef nonnull %14) #6
  %.pr = load i32, ptr %14, align 4, !tbaa !6
  br label %25

lean_inc.exit43:                                  ; preds = %11
  %24 = getelementptr i8, ptr %14, i64 82
  %.val = load i8, ptr %24, align 1, !tbaa !22
  br label %lean_dec.exit45

25:                                               ; preds = %23, %19
  %26 = phi i32 [ %.pr, %23 ], [ %20, %19 ]
  %27 = getelementptr i8, ptr %14, i64 82
  %.val57 = load i8, ptr %27, align 1, !tbaa !22
  %28 = icmp sgt i32 %26, 1
  br i1 %28, label %29, label %31, !prof !19

29:                                               ; preds = %25
  %30 = add nsw i32 %26, -1
  store i32 %30, ptr %14, align 4, !tbaa !6
  br label %lean_dec.exit45

31:                                               ; preds = %25
  %.not.i = icmp eq i32 %26, 0
  br i1 %.not.i, label %lean_dec.exit45, label %32

32:                                               ; preds = %31
  tail call void @lean_dec_ref_cold(ptr noundef nonnull %14) #6
  br label %lean_dec.exit45

lean_dec.exit45:                                  ; preds = %32, %31, %29, %.thread63, %lean_inc.exit43
  %.val59 = phi i8 [ %.val, %lean_inc.exit43 ], [ %.val57, %29 ], [ %.val57, %31 ], [ %.val57, %32 ], [ %.val5760, %.thread63 ]
  %33 = icmp eq i8 %.val59, 0
  %34 = getelementptr inbounds nuw i8, ptr %12, i64 16
  %35 = load ptr, ptr %34, align 8, !tbaa !11
  %36 = ptrtoint ptr %35 to i64
  %37 = and i64 %36, 1
  %.not68 = icmp eq i64 %37, 0
  br i1 %33, label %38, label %55

38:                                               ; preds = %lean_dec.exit45
  br i1 %.not68, label %39, label %lean_inc.exit42

39:                                               ; preds = %38
  %.val.i51 = load i32, ptr %35, align 4, !tbaa !6
  %40 = icmp sgt i32 %.val.i51, 0
  br i1 %40, label %41, label %43, !prof !5

41:                                               ; preds = %39
  %42 = add nuw i32 %.val.i51, 1
  store i32 %42, ptr %35, align 4, !tbaa !6
  br label %lean_inc.exit42

43:                                               ; preds = %39
  %.not.i52 = icmp eq i32 %.val.i51, 0
  br i1 %.not.i52, label %lean_inc.exit42, label %44

44:                                               ; preds = %43
  tail call void @lean_inc_ref_cold(ptr noundef nonnull %35) #6
  br label %lean_inc.exit42

lean_inc.exit42:                                  ; preds = %44, %43, %41, %38
  %45 = ptrtoint ptr %12 to i64
  %46 = and i64 %45, 1
  %.not69 = icmp eq i64 %46, 0
  br i1 %.not69, label %47, label %lean_dec.exit44

47:                                               ; preds = %lean_inc.exit42
  %48 = load i32, ptr %12, align 4, !tbaa !6
  %49 = icmp sgt i32 %48, 1
  br i1 %49, label %50, label %52, !prof !5

50:                                               ; preds = %47
  %51 = add nsw i32 %48, -1
  store i32 %51, ptr %12, align 4, !tbaa !6
  br label %lean_dec.exit44

52:                                               ; preds = %47
  %.not.i46 = icmp eq i32 %48, 0
  br i1 %.not.i46, label %lean_dec.exit44, label %53

53:                                               ; preds = %52
  tail call void @lean_dec_ref_cold(ptr noundef nonnull %12) #6
  br label %lean_dec.exit44

lean_dec.exit44:                                  ; preds = %53, %52, %50, %lean_inc.exit42
  %54 = tail call ptr @l_Lean_Meta_Grind_Arith_CommRing_Stepwise_setEqUnsat(ptr noundef %0, ptr noundef %1, ptr noundef %2, ptr noundef %3, ptr noundef %4, ptr noundef %5, ptr noundef %6, ptr noundef %7, ptr noundef %8, ptr noundef %9, ptr noundef %35)
  br label %72

55:                                               ; preds = %lean_dec.exit45
  br i1 %.not68, label %56, label %lean_inc.exit

56:                                               ; preds = %55
  %.val.i54 = load i32, ptr %35, align 4, !tbaa !6
  %57 = icmp sgt i32 %.val.i54, 0
  br i1 %57, label %58, label %60, !prof !5

58:                                               ; preds = %56
  %59 = add nuw i32 %.val.i54, 1
  store i32 %59, ptr %35, align 4, !tbaa !6
  br label %lean_inc.exit

60:                                               ; preds = %56
  %.not.i55 = icmp eq i32 %.val.i54, 0
  br i1 %.not.i55, label %lean_inc.exit, label %61

61:                                               ; preds = %60
  tail call void @lean_inc_ref_cold(ptr noundef nonnull %35) #6
  br label %lean_inc.exit

lean_inc.exit:                                    ; preds = %61, %60, %58, %55
  %62 = ptrtoint ptr %12 to i64
  %63 = and i64 %62, 1
  %.not67 = icmp eq i64 %63, 0
  br i1 %.not67, label %64, label %lean_dec.exit

64:                                               ; preds = %lean_inc.exit
  %65 = load i32, ptr %12, align 4, !tbaa !6
  %66 = icmp sgt i32 %65, 1
  br i1 %66, label %67, label %69, !prof !5

67:                                               ; preds = %64
  %68 = add nsw i32 %65, -1
  store i32 %68, ptr %12, align 4, !tbaa !6
  br label %lean_dec.exit

69:                                               ; preds = %64
  %.not.i48 = icmp eq i32 %65, 0
  br i1 %.not.i48, label %lean_dec.exit, label %70

70:                                               ; preds = %69
  tail call void @lean_dec_ref_cold(ptr noundef nonnull %12) #6
  br label %lean_dec.exit

lean_dec.exit:                                    ; preds = %70, %69, %67, %lean_inc.exit
  %71 = tail call ptr @l_Lean_Meta_Grind_Arith_CommRing_Null_setEqUnsat(ptr noundef %0, ptr noundef %1, ptr noundef %2, ptr noundef %3, ptr noundef %4, ptr noundef %5, ptr noundef %6, ptr noundef %7, ptr noundef %8, ptr noundef %9, ptr noundef %35)
  br label %72

72:                                               ; preds = %lean_dec.exit, %lean_dec.exit44
  %.0 = phi ptr [ %54, %lean_dec.exit44 ], [ %71, %lean_dec.exit ]
  ret ptr %.0
}